; Function Attrs: nounwind uwtable
define i32 @If_CutDsdBalanceEvalInt(ptr noundef %0, i32 noundef %1, ptr noundef %2, ptr noundef %3, ptr noundef %4, ptr noundef %5) local_unnamed_addr #4 {
  %7 = alloca i32, align 4
  %8 = alloca i32, align 4
  call void @llvm.lifetime.start.p0(i64 4, ptr nonnull %7) #39
  store i32 0, ptr %7, align 4, !tbaa !40
  call void @llvm.lifetime.start.p0(i64 4, ptr nonnull %8) #39
  store i32 0, ptr %8, align 4, !tbaa !40
  %9 = getelementptr i8, ptr %0, i64 48
  %.val = load ptr, ptr %9, align 8, !tbaa !23
  %10 = ashr i32 %1, 1
  %11 = sext i32 %10 to i64
  %12 = getelementptr inbounds ptr, ptr %.val, i64 %11
  %13 = load ptr, ptr %12, align 8, !tbaa !24
  %14 = getelementptr inbounds nuw i8, ptr %13, i64 4
  %15 = load i32, ptr %14, align 4
  %16 = lshr i32 %15, 3
  %17 = and i32 %16, 31
  %18 = call i32 @If_CutDsdBalanceEval_rec(ptr noundef %0, i32 noundef %10, ptr noundef %2, ptr noundef nonnull %7, ptr noundef %3, ptr noundef nonnull %8, i32 noundef %17, ptr noundef %4, ptr noundef %5)
  %19 = icmp eq i32 %18, -1
  %.not = icmp eq ptr %3, null
  %or.cond = or i1 %.not, %19
  br i1 %or.cond, label %55, label %20

20:                                               ; preds = %6
  %21 = load i32, ptr %8, align 4, !tbaa !40
  %22 = xor i32 %21, %1
  %23 = and i32 %22, 1
  %24 = getelementptr inbounds nuw i8, ptr %3, i64 4
  %25 = load i32, ptr %24, align 4, !tbaa !37
  %26 = load i32, ptr %3, align 8, !tbaa !38
  %27 = icmp eq i32 %25, %26
  br i1 %27, label %28, label %.Vec_IntGrow.exit10_crit_edge.i

.Vec_IntGrow.exit10_crit_edge.i:                  ; preds = %20
  %.phi.trans.insert.i = getelementptr inbounds nuw i8, ptr %3, i64 8
  %.pre.i = load ptr, ptr %.phi.trans.insert.i, align 8, !tbaa !39
  br label %Vec_IntPush.exit

28:                                               ; preds = %20
  %29 = icmp slt i32 %25, 16
  br i1 %29, label %30, label %38

30:                                               ; preds = %28
  %31 = getelementptr inbounds nuw i8, ptr %3, i64 8
  %32 = load ptr, ptr %31, align 8, !tbaa !39
  %.not9.i.i = icmp eq ptr %32, null
  br i1 %.not9.i.i, label %35, label %33

33:                                               ; preds = %30
  %34 = call dereferenceable_or_null(64) ptr @realloc(ptr noundef nonnull %32, i64 noundef 64) #40
  br label %Vec_IntGrow.exit.i

35:                                               ; preds = %30
  %36 = call noalias dereferenceable_or_null(64) ptr @malloc(i64 noundef 64) #41
  br label %Vec_IntGrow.exit.i

Vec_IntGrow.exit.i:                               ; preds = %35, %33
  %37 = phi ptr [ %34, %33 ], [ %36, %35 ]
  store ptr %37, ptr %31, align 8, !tbaa !39
  store i32 16, ptr %3, align 8, !tbaa !38
  br label %Vec_IntPush.exit

38:                                               ; preds = %28
  %39 = shl nuw nsw i32 %25, 1
  %40 = getelementptr inbounds nuw i8, ptr %3, i64 8
  %41 = load ptr, ptr %40, align 8, !tbaa !39
  %.not9.i9.i = icmp eq ptr %41, null
  %42 = zext nneg i32 %39 to i64
  %43 = shl nuw nsw i64 %42, 2
  br i1 %.not9.i9.i, label %46, label %44

44:                                               ; preds = %38
  %45 = call ptr @realloc(ptr noundef nonnull %41, i64 noundef %43) #40
  br label %48

46:                                               ; preds = %38
  %47 = call noalias ptr @malloc(i64 noundef %43) #41
  br label %48

48:                                               ; preds = %46, %44
  %49 = phi ptr [ %45, %44 ], [ %47, %46 ]
  store ptr %49, ptr %40, align 8, !tbaa !39
  store i32 %39, ptr %3, align 8, !tbaa !38
  br label %Vec_IntPush.exit

Vec_IntPush.exit:                                 ; preds = %.Vec_IntGrow.exit10_crit_edge.i, %Vec_IntGrow.exit.i, %48
  %50 = phi ptr [ %.pre.i, %.Vec_IntGrow.exit10_crit_edge.i ], [ %49, %48 ], [ %37, %Vec_IntGrow.exit.i ]
  %51 = load i32, ptr %24, align 4, !tbaa !37
  %52 = add nsw i32 %51, 1
  store i32 %52, ptr %24, align 4, !tbaa !37
  %53 = sext i32 %51 to i64
  %54 = getelementptr inbounds i32, ptr %50, i64 %53
  store i32 %23, ptr %54, align 4, !tbaa !40
  br label %55

55:                                               ; preds = %Vec_IntPush.exit, %6
  call void @llvm.lifetime.end.p0(i64 4, ptr nonnull %8) #39
  call void @llvm.lifetime.end.p0(i64 4, ptr nonnull %7) #39
  ret i32 %18
}